target datalayout = "e-m:e-p270:32:32-p271:32:32-p272:64:64-i64:64-i128:128-f80:128-n8:16:32:64-S128"
target triple = "x86_64-pc-linux-gnu"

@myTempNamespace = internal global i32 0, align 4
@myTempToastNamespace = internal global i32 0, align 4
@.str.25 = private unnamed_addr constant [9 x i8] c"pg_temp_\00", align 1
@.str.26 = private unnamed_addr constant [15 x i8] c"pg_toast_temp_\00", align 1

; Function Attrs: nounwind uwtable
define dso_local zeroext i1 @isAnyTempNamespace(i32 noundef %0) #0 {
  %2 = alloca i1, align 1
  %3 = alloca i32, align 4
  %4 = alloca i8, align 1
  %5 = alloca ptr, align 8
  %6 = alloca i32, align 4
  store i32 %0, ptr %3, align 4
  call void @llvm.lifetime.start.p0(i64 1, ptr %4) #14
  call void @llvm.lifetime.start.p0(i64 8, ptr %5) #14
  %7 = load i32, ptr %3, align 4
  %8 = call ptr @get_namespace_name(i32 noundef %7)
  store ptr %8, ptr %5, align 8
  %9 = load ptr, ptr %5, align 8
  %10 = icmp ne ptr %9, null
  br i1 %10, label %12, label %11

11:                                               ; preds = %1
  store i1 false, ptr %2, align 1
  store i32 1, ptr %6, align 4
  br label %26

12:                                               ; preds = %1
  %13 = load ptr, ptr %5, align 8
  %14 = call i32 @strncmp(ptr noundef %13, ptr noundef @.str.25, i64 noundef 8) #15
  %15 = icmp eq i32 %14, 0
  br i1 %15, label %20, label %16

16:                                               ; preds = %12
  %17 = load ptr, ptr %5, align 8
  %18 = call i32 @strncmp(ptr noundef %17, ptr noundef @.str.26, i64 noundef 14) #15
  %19 = icmp eq i32 %18, 0
  br label %20

20:                                               ; preds = %16, %12
  %21 = phi i1 [ true, %12 ], [ %19, %16 ]
  %22 = zext i1 %21 to i8
  store i8 %22, ptr %4, align 1
  %23 = load ptr, ptr %5, align 8
  call void @pfree(ptr noundef %23)
  %24 = load i8, ptr %4, align 1, !range !4, !noundef !5
  %25 = trunc i8 %24 to i1
  store i1 %25, ptr %2, align 1
  store i32 1, ptr %6, align 4
  br label %26

26:                                               ; preds = %20, %11
  call void @llvm.lifetime.end.p0(i64 8, ptr %5) #14
  call void @llvm.lifetime.end.p0(i64 1, ptr %4) #14
  %27 = load i1, ptr %2, align 1
  ret i1 %27
}

; Function Attrs: nounwind uwtable
define dso_local zeroext i1 @isTempOrTempToastNamespace(i32 noundef %0) #0 {
  %2 = alloca i1, align 1
  %3 = alloca i32, align 4
  store i32 %0, ptr %3, align 4
  %4 = load i32, ptr @myTempNamespace, align 4
  %5 = icmp ne i32 %4, 0
  br i1 %5, label %6, label %15

6:                                                ; preds = %1
  %7 = load i32, ptr @myTempNamespace, align 4
  %8 = load i32, ptr %3, align 4
  %9 = icmp eq i32 %7, %8
  br i1 %9, label %14, label %10

10:                                               ; preds = %6
  %11 = load i32, ptr @myTempToastNamespace, align 4
  %12 = load i32, ptr %3, align 4
  %13 = icmp eq i32 %11, %12
  br i1 %13, label %14, label %15

14:                                               ; preds = %10, %6
  store i1 true, ptr %2, align 1
  br label %16

15:                                               ; preds = %10, %1
  store i1 false, ptr %2, align 1
  br label %16

16:                                               ; preds = %15, %14
  %17 = load i1, ptr %2, align 1
  ret i1 %17
}

; Function Attrs: nounwind uwtable
define dso_local zeroext i1 @isOtherTempNamespace(i32 noundef %0) #0 {
  %2 = alloca i1, align 1
  %3 = alloca i32, align 4
  store i32 %0, ptr %3, align 4
  %4 = load i32, ptr %3, align 4
  %5 = call zeroext i1 @isTempOrTempToastNamespace(i32 noundef %4)
  br i1 %5, label %6, label %7

6:                                                ; preds = %1
  store i1 false, ptr %2, align 1
  br label %10

7:                                                ; preds = %1
  %8 = load i32, ptr %3, align 4
  %9 = call zeroext i1 @isAnyTempNamespace(i32 noundef %8)
  store i1 %9, ptr %2, align 1
  br label %10

10:                                               ; preds = %7, %6
  %11 = load i1, ptr %2, align 1
  ret i1 %11
}