; Function Attrs: nounwind uwtable
define dso_local zeroext i1 @isOtherTempNamespace(i32 noundef %0) local_unnamed_addr #0 {
  %2 = load i32, ptr @myTempNamespace, align 4
  %.not.i = icmp eq i32 %2, 0
  br i1 %.not.i, label %isTempOrTempToastNamespace.exit, label %3

3:                                                ; preds = %1
  %4 = icmp eq i32 %2, %0
  %5 = load i32, ptr @myTempToastNamespace, align 4
  %6 = icmp eq i32 %5, %0
  %or.cond.i = select i1 %4, i1 true, i1 %6
  br i1 %or.cond.i, label %isAnyTempNamespace.exit, label %isTempOrTempToastNamespace.exit

isTempOrTempToastNamespace.exit:                  ; preds = %3, %1
  %7 = tail call ptr @get_namespace_name(i32 noundef %0) #19
  %.not.i2 = icmp eq ptr %7, null
  br i1 %.not.i2, label %isAnyTempNamespace.exit, label %8

8:                                                ; preds = %isTempOrTempToastNamespace.exit
  %9 = tail call i32 @strncmp(ptr noundef nonnull dereferenceable(1) %7, ptr noundef nonnull dereferenceable(9) @.str.25, i64 noundef 8) #20
  %10 = icmp eq i32 %9, 0
  br i1 %10, label %14, label %11

11:                                               ; preds = %8
  %12 = tail call i32 @strncmp(ptr noundef nonnull dereferenceable(1) %7, ptr noundef nonnull dereferenceable(15) @.str.26, i64 noundef 14) #20
  %13 = icmp eq i32 %12, 0
  br label %14

14:                                               ; preds = %11, %8
  %15 = phi i1 [ true, %8 ], [ %13, %11 ]
  tail call void @pfree(ptr noundef nonnull %7) #19
  br label %isAnyTempNamespace.exit

isAnyTempNamespace.exit:                          ; preds = %3, %14, %isTempOrTempToastNamespace.exit
  %.0 = phi i1 [ %15, %14 ], [ false, %isTempOrTempToastNamespace.exit ], [ false, %3 ]
  ret i1 %.0
}